target datalayout = "e-m:e-p270:32:32-p271:32:32-p272:64:64-i64:64-i128:128-f80:128-n8:16:32:64-S128"
target triple = "x86_64-pc-linux-gnu"

%struct._object = type { %union.anon, ptr }
%union.anon = type { i64 }
%struct._typeobject = type { %struct.PyVarObject, ptr, i64, i64, ptr, i64, ptr, ptr, ptr, ptr, ptr, ptr, ptr, ptr, ptr, ptr, ptr, ptr, ptr, i64, ptr, ptr, ptr, ptr, i64, ptr, ptr, ptr, ptr, ptr, ptr, ptr, ptr, ptr, i64, ptr, ptr, ptr, ptr, ptr, ptr, ptr, ptr, ptr, ptr, ptr, i32, ptr, ptr, i8, i16 }
%struct.PyVarObject = type { %struct._object, i64 }
%struct.arraydescr = type { i8, i32, ptr, ptr, ptr, ptr, i32, i32 }
%struct.PyListObject = type { %struct.PyVarObject, ptr, i64 }
%struct.arrayobject = type { %struct.PyVarObject, ptr, i64, ptr, ptr, i64 }

@PyExc_TypeError = external global ptr, align 8
@_Py_NoneStruct = external global %struct._object, align 8
@PyExc_RuntimeError = external global ptr, align 8
@.str.109 = private unnamed_addr constant [17 x i8] c"arg must be list\00", align 1
@.str.110 = private unnamed_addr constant [35 x i8] c"list changed size during iteration\00", align 1

; Function Attrs: inlinehint nounwind uwtable
define internal i64 @PyList_GET_SIZE(ptr noundef %0) #3 {
  %2 = alloca ptr, align 8
  %3 = alloca ptr, align 8
  store ptr %0, ptr %2, align 8, !tbaa !3
  call void @llvm.lifetime.start.p0(i64 8, ptr %3) #8
  %4 = load ptr, ptr %2, align 8, !tbaa !3
  store ptr %4, ptr %3, align 8, !tbaa !8
  %5 = load ptr, ptr %3, align 8, !tbaa !8
  %6 = call i64 @Py_SIZE(ptr noundef %5)
  call void @llvm.lifetime.end.p0(i64 8, ptr %3) #8
  ret i64 %6
}

; Function Attrs: inlinehint nounwind uwtable
define internal i64 @Py_SIZE(ptr noundef %0) #3 {
  %2 = alloca ptr, align 8
  store ptr %0, ptr %2, align 8, !tbaa !3
  %3 = load ptr, ptr %2, align 8, !tbaa !3
  %4 = getelementptr inbounds nuw %struct.PyVarObject, ptr %3, i32 0, i32 1
  %5 = load i64, ptr %4, align 8, !tbaa !62
  ret i64 %5
}

; Function Attrs: inlinehint nounwind uwtable
define internal i32 @PyType_HasFeature(ptr noundef %0, i64 noundef %1) #3 {
  %3 = alloca ptr, align 8
  %4 = alloca i64, align 8
  %5 = alloca i64, align 8
  store ptr %0, ptr %3, align 8, !tbaa !18
  store i64 %1, ptr %4, align 8, !tbaa !21
  call void @llvm.lifetime.start.p0(i64 8, ptr %5) #8
  %6 = load ptr, ptr %3, align 8, !tbaa !18
  %7 = getelementptr inbounds nuw %struct._typeobject, ptr %6, i32 0, i32 19
  %8 = load i64, ptr %7, align 8, !tbaa !23
  store i64 %8, ptr %5, align 8, !tbaa !21
  %9 = load i64, ptr %5, align 8, !tbaa !21
  %10 = load i64, ptr %4, align 8, !tbaa !21
  %11 = and i64 %9, %10
  %12 = icmp ne i64 %11, 0
  %13 = zext i1 %12 to i32
  call void @llvm.lifetime.end.p0(i64 8, ptr %5) #8
  ret i32 %13
}

; Function Attrs: inlinehint nounwind uwtable
define internal ptr @_Py_TYPE(ptr noundef %0) #3 {
  %2 = alloca ptr, align 8
  store ptr %0, ptr %2, align 8, !tbaa !3
  %3 = load ptr, ptr %2, align 8, !tbaa !3
  %4 = getelementptr inbounds nuw %struct._object, ptr %3, i32 0, i32 1
  %5 = load ptr, ptr %4, align 8, !tbaa !32
  ret ptr %5
}

; Function Attrs: nounwind uwtable
define internal ptr @array_array_fromlist(ptr noundef %0, ptr noundef %1) #0 {
  %3 = alloca ptr, align 8
  %4 = alloca ptr, align 8
  %5 = alloca ptr, align 8
  %6 = alloca i64, align 8
  %7 = alloca i32, align 4
  %8 = alloca i64, align 8
  %9 = alloca i64, align 8
  %10 = alloca ptr, align 8
  store ptr %0, ptr %4, align 8, !tbaa !68
  store ptr %1, ptr %5, align 8, !tbaa !3
  call void @llvm.lifetime.start.p0(i64 8, ptr %6) #8
  %11 = load ptr, ptr %5, align 8, !tbaa !3
  %12 = call ptr @_Py_TYPE(ptr noundef %11)
  %13 = call i32 @PyType_HasFeature(ptr noundef %12, i64 noundef 33554432)
  %14 = icmp ne i32 %13, 0
  br i1 %14, label %17, label %15

15:                                               ; preds = %2
  %16 = load ptr, ptr @PyExc_TypeError, align 8, !tbaa !3
  call void @PyErr_SetString(ptr noundef %16, ptr noundef @.str.109)
  store ptr null, ptr %3, align 8
  store i32 1, ptr %7, align 4
  br label %85

17:                                               ; preds = %2
  %18 = load ptr, ptr %5, align 8, !tbaa !3
  %19 = call i64 @PyList_Size(ptr noundef %18)
  store i64 %19, ptr %6, align 8, !tbaa !21
  %20 = load i64, ptr %6, align 8, !tbaa !21
  %21 = icmp sgt i64 %20, 0
  br i1 %21, label %22, label %84

22:                                               ; preds = %17
  call void @llvm.lifetime.start.p0(i64 8, ptr %8) #8
  call void @llvm.lifetime.start.p0(i64 8, ptr %9) #8
  %23 = load ptr, ptr %4, align 8, !tbaa !68
  %24 = call i64 @Py_SIZE(ptr noundef %23)
  store i64 %24, ptr %9, align 8, !tbaa !21
  %25 = load ptr, ptr %4, align 8, !tbaa !68
  %26 = load i64, ptr %9, align 8, !tbaa !21
  %27 = load i64, ptr %6, align 8, !tbaa !21
  %28 = add i64 %26, %27
  %29 = call i32 @array_resize(ptr noundef %25, i64 noundef %28)
  %30 = icmp eq i32 %29, -1
  br i1 %30, label %31, label %32

31:                                               ; preds = %22
  store ptr null, ptr %3, align 8
  store i32 1, ptr %7, align 4
  br label %81

32:                                               ; preds = %22
  store i64 0, ptr %8, align 8, !tbaa !21
  br label %33

33:                                               ; preds = %77, %32
  %34 = load i64, ptr %8, align 8, !tbaa !21
  %35 = load i64, ptr %6, align 8, !tbaa !21
  %36 = icmp slt i64 %34, %35
  br i1 %36, label %37, label %80

37:                                               ; preds = %33
  call void @llvm.lifetime.start.p0(i64 8, ptr %10) #8
  %38 = load ptr, ptr %5, align 8, !tbaa !3
  %39 = getelementptr inbounds nuw %struct.PyListObject, ptr %38, i32 0, i32 1
  %40 = load ptr, ptr %39, align 8, !tbaa !63
  %41 = load i64, ptr %8, align 8, !tbaa !21
  %42 = getelementptr ptr, ptr %40, i64 %41
  %43 = load ptr, ptr %42, align 8, !tbaa !3
  store ptr %43, ptr %10, align 8, !tbaa !3
  %44 = load ptr, ptr %4, align 8, !tbaa !68
  %45 = getelementptr inbounds nuw %struct.arrayobject, ptr %44, i32 0, i32 3
  %46 = load ptr, ptr %45, align 8, !tbaa !99
  %47 = getelementptr inbounds nuw %struct.arraydescr, ptr %46, i32 0, i32 3
  %48 = load ptr, ptr %47, align 8, !tbaa !109
  %49 = load ptr, ptr %4, align 8, !tbaa !68
  %50 = load ptr, ptr %4, align 8, !tbaa !68
  %51 = call i64 @Py_SIZE(ptr noundef %50)
  %52 = load i64, ptr %6, align 8, !tbaa !21
  %53 = sub i64 %51, %52
  %54 = load i64, ptr %8, align 8, !tbaa !21
  %55 = add i64 %53, %54
  %56 = load ptr, ptr %10, align 8, !tbaa !3
  %57 = call i32 %48(ptr noundef %49, i64 noundef %55, ptr noundef %56)
  %58 = icmp ne i32 %57, 0
  br i1 %58, label %59, label %63

59:                                               ; preds = %37
  %60 = load ptr, ptr %4, align 8, !tbaa !68
  %61 = load i64, ptr %9, align 8, !tbaa !21
  %62 = call i32 @array_resize(ptr noundef %60, i64 noundef %61)
  store ptr null, ptr %3, align 8
  store i32 1, ptr %7, align 4
  br label %74

63:                                               ; preds = %37
  %64 = load i64, ptr %6, align 8, !tbaa !21
  %65 = load ptr, ptr %5, align 8, !tbaa !3
  %66 = call i64 @PyList_GET_SIZE(ptr noundef %65)
  %67 = icmp ne i64 %64, %66
  br i1 %67, label %68, label %73

68:                                               ; preds = %63
  %69 = load ptr, ptr @PyExc_RuntimeError, align 8, !tbaa !3
  call void @PyErr_SetString(ptr noundef %69, ptr noundef @.str.110)
  %70 = load ptr, ptr %4, align 8, !tbaa !68
  %71 = load i64, ptr %9, align 8, !tbaa !21
  %72 = call i32 @array_resize(ptr noundef %70, i64 noundef %71)
  store ptr null, ptr %3, align 8
  store i32 1, ptr %7, align 4
  br label %74

73:                                               ; preds = %63
  store i32 0, ptr %7, align 4
  br label %74

74:                                               ; preds = %73, %68, %59
  call void @llvm.lifetime.end.p0(i64 8, ptr %10) #8
  %75 = load i32, ptr %7, align 4
  switch i32 %75, label %81 [
    i32 0, label %76
  ]

76:                                               ; preds = %74
  br label %77

77:                                               ; preds = %76
  %78 = load i64, ptr %8, align 8, !tbaa !21
  %79 = add i64 %78, 1
  store i64 %79, ptr %8, align 8, !tbaa !21
  br label %33, !llvm.loop !140

80:                                               ; preds = %33
  store i32 0, ptr %7, align 4
  br label %81

81:                                               ; preds = %80, %74, %31
  call void @llvm.lifetime.end.p0(i64 8, ptr %9) #8
  call void @llvm.lifetime.end.p0(i64 8, ptr %8) #8
  %82 = load i32, ptr %7, align 4
  switch i32 %82, label %85 [
    i32 0, label %83
  ]

83:                                               ; preds = %81
  br label %84

84:                                               ; preds = %83, %17
  store ptr @_Py_NoneStruct, ptr %3, align 8
  store i32 1, ptr %7, align 4
  br label %85

85:                                               ; preds = %84, %81, %15
  call void @llvm.lifetime.end.p0(i64 8, ptr %6) #8
  %86 = load ptr, ptr %3, align 8
  ret ptr %86
}