; Function Attrs: nounwind uwtable
define internal noundef ptr @array_array_fromlist(ptr noundef %0, ptr noundef %1) #0 {
  %3 = getelementptr i8, ptr %1, i64 8
  %.val = load ptr, ptr %3, align 8, !tbaa !19
  %4 = getelementptr i8, ptr %.val, i64 168
  %.val34 = load i64, ptr %4, align 8, !tbaa !20
  %5 = and i64 %.val34, 33554432
  %.not = icmp eq i64 %5, 0
  br i1 %.not, label %6, label %8

6:                                                ; preds = %2
  %7 = load ptr, ptr @PyExc_TypeError, align 8, !tbaa !18
  tail call void @PyErr_SetString(ptr noundef %7, ptr noundef nonnull @.str.109) #11
  br label %.critedge

8:                                                ; preds = %2
  %9 = tail call i64 @PyList_Size(ptr noundef nonnull %1) #11
  %10 = icmp sgt i64 %9, 0
  br i1 %10, label %11, label %.critedge

11:                                               ; preds = %8
  %12 = getelementptr i8, ptr %0, i64 16
  %.val36 = load i64, ptr %12, align 8, !tbaa !40
  %13 = add i64 %.val36, %9
  %14 = tail call fastcc i32 @array_resize(ptr noundef %0, i64 noundef %13)
  %15 = icmp eq i32 %14, -1
  br i1 %15, label %.critedge, label %.lr.ph

.lr.ph:                                           ; preds = %11
  %16 = getelementptr inbounds nuw i8, ptr %1, i64 24
  %17 = getelementptr inbounds nuw i8, ptr %0, i64 40
  %18 = getelementptr i8, ptr %1, i64 16
  br label %21

19:                                               ; preds = %33
  %20 = add nuw nsw i64 %.02938, 1
  %exitcond.not = icmp eq i64 %20, %9
  br i1 %exitcond.not, label %.critedge, label %21, !llvm.loop !122

21:                                               ; preds = %.lr.ph, %19
  %.02938 = phi i64 [ 0, %.lr.ph ], [ %20, %19 ]
  %22 = load ptr, ptr %16, align 8, !tbaa !43
  %23 = getelementptr ptr, ptr %22, i64 %.02938
  %24 = load ptr, ptr %23, align 8, !tbaa !18
  %25 = load ptr, ptr %17, align 8, !tbaa !76
  %26 = getelementptr inbounds nuw i8, ptr %25, i64 16
  %27 = load ptr, ptr %26, align 8, !tbaa !77
  %.val35 = load i64, ptr %12, align 8, !tbaa !40
  %28 = sub nsw i64 %.02938, %9
  %29 = add i64 %28, %.val35
  %30 = tail call i32 %27(ptr noundef nonnull %0, i64 noundef %29, ptr noundef %24) #11
  %.not31 = icmp eq i32 %30, 0
  br i1 %.not31, label %33, label %31

31:                                               ; preds = %21
  %32 = tail call fastcc i32 @array_resize(ptr noundef nonnull %0, i64 noundef %.val36)
  br label %.critedge

33:                                               ; preds = %21
  %.val37 = load i64, ptr %18, align 8, !tbaa !40
  %.not32 = icmp eq i64 %9, %.val37
  br i1 %.not32, label %19, label %34

34:                                               ; preds = %33
  %35 = load ptr, ptr @PyExc_RuntimeError, align 8, !tbaa !18
  tail call void @PyErr_SetString(ptr noundef %35, ptr noundef nonnull @.str.110) #11
  %36 = tail call fastcc i32 @array_resize(ptr noundef nonnull %0, i64 noundef %.val36)
  br label %.critedge

.critedge:                                        ; preds = %19, %11, %34, %31, %8, %6
  %.0 = phi ptr [ null, %6 ], [ @_Py_NoneStruct, %8 ], [ null, %31 ], [ null, %34 ], [ null, %11 ], [ @_Py_NoneStruct, %19 ]
  ret ptr %.0
}